target datalayout = "e-m:e-p270:32:32-p271:32:32-p272:64:64-i64:64-i128:128-f80:128-n8:16:32:64-S128"
target triple = "x86_64-pc-linux-gnu"

%class.HotSpotCompiledCodeStream = type { ptr, ptr, ptr, i8, %class.objArrayHandle, ptr, ptr, ptr }
%class.objArrayHandle = type { %class.Handle }
%class.Handle = type { ptr }
%"class.HotSpotCompiledCodeStream::Chunk" = type <{ ptr, i32, [4 x i8] }>

@.str.13 = private unnamed_addr constant [35 x i8] c"HotSpotCompiledCode stream for %s:\00", align 1
@.str.14 = private unnamed_addr constant [21 x i8] c"# chunk %d, %d bytes\00", align 1

; Function Attrs: mustprogress nounwind uwtable
define linkonce_odr hidden noundef ptr @_ZNK25HotSpotCompiledCodeStream5Chunk4nextEv(ptr noundef nonnull align 8 dereferenceable(12) %0) #1 comdat align 2 {
  %2 = alloca ptr, align 8
  store ptr %0, ptr %2, align 8
  %3 = load ptr, ptr %2, align 8
  %4 = getelementptr inbounds %"class.HotSpotCompiledCodeStream::Chunk", ptr %3, i32 0, i32 0
  %5 = load ptr, ptr %4, align 8
  ret ptr %5
}

; Function Attrs: mustprogress nounwind uwtable
define linkonce_odr hidden noundef ptr @_ZNK25HotSpotCompiledCodeStream5Chunk8data_endEv(ptr noundef nonnull align 8 dereferenceable(12) %0) #1 comdat align 2 {
  %2 = alloca ptr, align 8
  store ptr %0, ptr %2, align 8
  %3 = load ptr, ptr %2, align 8
  %4 = call noundef ptr @_ZNK25HotSpotCompiledCodeStream5Chunk4dataEv(ptr noundef nonnull align 8 dereferenceable(12) %3)
  %5 = getelementptr inbounds %"class.HotSpotCompiledCodeStream::Chunk", ptr %3, i32 0, i32 1
  %6 = load i32, ptr %5, align 8
  %7 = zext i32 %6 to i64
  %8 = getelementptr inbounds i8, ptr %4, i64 %7
  ret ptr %8
}

; Function Attrs: mustprogress nounwind uwtable
define linkonce_odr hidden noundef ptr @_ZNK25HotSpotCompiledCodeStream5Chunk4dataEv(ptr noundef nonnull align 8 dereferenceable(12) %0) #1 comdat align 2 {
  %2 = alloca ptr, align 8
  store ptr %0, ptr %2, align 8
  %3 = load ptr, ptr %2, align 8
  %4 = getelementptr inbounds i8, ptr %3, i64 12
  ret ptr %4
}

; Function Attrs: mustprogress nounwind uwtable
define linkonce_odr hidden noundef ptr @_ZNK25HotSpotCompiledCodeStream9code_descEv(ptr noundef nonnull align 8 dereferenceable(64) %0) #1 comdat align 2 {
  %2 = alloca ptr, align 8
  store ptr %0, ptr %2, align 8
  %3 = load ptr, ptr %2, align 8
  %4 = getelementptr inbounds %class.HotSpotCompiledCodeStream, ptr %3, i32 0, i32 7
  %5 = load ptr, ptr %4, align 8
  ret ptr %5
}

; Function Attrs: mustprogress nounwind uwtable
define hidden void @_ZNK25HotSpotCompiledCodeStream11dump_bufferEP12outputStream(ptr noundef nonnull align 8 dereferenceable(64) %0, ptr noundef %1) #1 align 2 {
  %3 = alloca ptr, align 8
  %4 = alloca ptr, align 8
  %5 = alloca i32, align 4
  %6 = alloca ptr, align 8
  %7 = alloca ptr, align 8
  %8 = alloca ptr, align 8
  %9 = alloca i32, align 4
  store ptr %0, ptr %3, align 8
  store ptr %1, ptr %4, align 8
  %10 = load ptr, ptr %3, align 8
  %11 = load ptr, ptr %4, align 8
  %12 = call noundef ptr @_ZNK25HotSpotCompiledCodeStream9code_descEv(ptr noundef nonnull align 8 dereferenceable(64) %10)
  call void (ptr, ptr, ...) @_ZN12outputStream8print_crEPKcz(ptr noundef nonnull align 8 dereferenceable(56) %11, ptr noundef @.str.13, ptr noundef %12)
  store i32 0, ptr %5, align 4
  %13 = getelementptr inbounds %class.HotSpotCompiledCodeStream, ptr %10, i32 0, i32 0
  %14 = load ptr, ptr %13, align 8
  store ptr %14, ptr %6, align 8
  br label %15

15:                                               ; preds = %38, %2
  %16 = load ptr, ptr %6, align 8
  %17 = icmp ne ptr %16, null
  br i1 %17, label %18, label %41

18:                                               ; preds = %15
  %19 = load ptr, ptr %6, align 8
  %20 = call noundef ptr @_ZNK25HotSpotCompiledCodeStream5Chunk4dataEv(ptr noundef nonnull align 8 dereferenceable(12) %19)
  store ptr %20, ptr %7, align 8
  %21 = load ptr, ptr %6, align 8
  %22 = call noundef ptr @_ZNK25HotSpotCompiledCodeStream5Chunk8data_endEv(ptr noundef nonnull align 8 dereferenceable(12) %21)
  store ptr %22, ptr %8, align 8
  %23 = load ptr, ptr %8, align 8
  %24 = load ptr, ptr %7, align 8
  %25 = ptrtoint ptr %23 to i64
  %26 = ptrtoint ptr %24 to i64
  %27 = sub i64 %25, %26
  %28 = trunc i64 %27 to i32
  store i32 %28, ptr %9, align 4
  %29 = load ptr, ptr %4, align 8
  %30 = load i32, ptr %5, align 4
  %31 = load i32, ptr %9, align 4
  call void (ptr, ptr, ...) @_ZN12outputStream8print_crEPKcz(ptr noundef nonnull align 8 dereferenceable(56) %29, ptr noundef @.str.14, i32 noundef %30, i32 noundef %31)
  %32 = load ptr, ptr %4, align 8
  %33 = load ptr, ptr %7, align 8
  %34 = load i32, ptr %9, align 4
  %35 = sext i32 %34 to i64
  call void @_ZN12outputStream10print_dataEPvmbb(ptr noundef nonnull align 8 dereferenceable(56) %32, ptr noundef %33, i64 noundef %35, i1 noundef zeroext true, i1 noundef zeroext false)
  %36 = load i32, ptr %5, align 4
  %37 = add nsw i32 %36, 1
  store i32 %37, ptr %5, align 4
  br label %38

38:                                               ; preds = %18
  %39 = load ptr, ptr %6, align 8
  %40 = call noundef ptr @_ZNK25HotSpotCompiledCodeStream5Chunk4nextEv(ptr noundef nonnull align 8 dereferenceable(12) %39)
  store ptr %40, ptr %6, align 8
  br label %15, !llvm.loop !9

41:                                               ; preds = %15
  ret void
}