; Function Attrs: mustprogress nounwind uwtable
define hidden void @_ZNK25HotSpotCompiledCodeStream11dump_bufferEP12outputStream(ptr nocapture noundef nonnull readonly align 8 dereferenceable(64) %0, ptr noundef nonnull %1) local_unnamed_addr #2 align 2 {
  %3 = getelementptr inbounds i8, ptr %0, i64 56
  %4 = load ptr, ptr %3, align 8
  tail call void (ptr, ptr, ...) @_ZN12outputStream8print_crEPKcz(ptr noundef nonnull align 8 dereferenceable(56) %1, ptr noundef nonnull @.str.13, ptr noundef %4) #10
  %.01415 = load ptr, ptr %0, align 8
  %.not16 = icmp eq ptr %.01415, null
  br i1 %.not16, label %._crit_edge, label %.lr.ph

.lr.ph:                                           ; preds = %2, %.lr.ph
  %.01418 = phi ptr [ %.014, %.lr.ph ], [ %.01415, %2 ]
  %.017 = phi i32 [ %9, %.lr.ph ], [ 0, %2 ]
  %5 = getelementptr inbounds i8, ptr %.01418, i64 12
  %6 = getelementptr inbounds i8, ptr %.01418, i64 8
  %7 = load i32, ptr %6, align 8
  tail call void (ptr, ptr, ...) @_ZN12outputStream8print_crEPKcz(ptr noundef nonnull align 8 dereferenceable(56) %1, ptr noundef nonnull @.str.14, i32 noundef %.017, i32 noundef %7) #10
  %8 = sext i32 %7 to i64
  tail call void @_ZN12outputStream10print_dataEPvmbb(ptr noundef nonnull align 8 dereferenceable(56) %1, ptr noundef nonnull %5, i64 noundef %8, i1 noundef zeroext true, i1 noundef zeroext false) #10
  %9 = add nuw nsw i32 %.017, 1
  %.014 = load ptr, ptr %.01418, align 8
  %.not = icmp eq ptr %.014, null
  br i1 %.not, label %._crit_edge, label %.lr.ph, !llvm.loop !9

._crit_edge:                                      ; preds = %.lr.ph, %2
  ret void
}